
challenge:     file format elf64-x86-64


Disassembly of section .init:

0000000000001000 <.init>:
    1000:	f3 0f 1e fa          	endbr64
    1004:	48 83 ec 08          	sub    $0x8,%rsp
    1008:	48 8b 05 d9 2f 00 00 	mov    0x2fd9(%rip),%rax        # 3fe8 <getc@plt+0x2f18>
    100f:	48 85 c0             	test   %rax,%rax
    1012:	74 02                	je     1016 <puts@plt-0x1a>
    1014:	ff d0                	call   *%rax
    1016:	48 83 c4 08          	add    $0x8,%rsp
    101a:	c3                   	ret

Disassembly of section .plt:

0000000000001020 <puts@plt-0x10>:
    1020:	ff 35 4a 2f 00 00    	push   0x2f4a(%rip)        # 3f70 <getc@plt+0x2ea0>
    1026:	ff 25 4c 2f 00 00    	jmp    *0x2f4c(%rip)        # 3f78 <getc@plt+0x2ea8>
    102c:	0f 1f 40 00          	nopl   0x0(%rax)

0000000000001030 <puts@plt>:
    1030:	ff 25 4a 2f 00 00    	jmp    *0x2f4a(%rip)        # 3f80 <getc@plt+0x2eb0>
    1036:	68 00 00 00 00       	push   $0x0
    103b:	e9 e0 ff ff ff       	jmp    1020 <puts@plt-0x10>

0000000000001040 <fclose@plt>:
    1040:	ff 25 42 2f 00 00    	jmp    *0x2f42(%rip)        # 3f88 <getc@plt+0x2eb8>
    1046:	68 01 00 00 00       	push   $0x1
    104b:	e9 d0 ff ff ff       	jmp    1020 <puts@plt-0x10>

0000000000001050 <__stack_chk_fail@plt>:
    1050:	ff 25 3a 2f 00 00    	jmp    *0x2f3a(%rip)        # 3f90 <getc@plt+0x2ec0>
    1056:	68 02 00 00 00       	push   $0x2
    105b:	e9 c0 ff ff ff       	jmp    1020 <puts@plt-0x10>

0000000000001060 <setbuf@plt>:
    1060:	ff 25 32 2f 00 00    	jmp    *0x2f32(%rip)        # 3f98 <getc@plt+0x2ec8>
    1066:	68 03 00 00 00       	push   $0x3
    106b:	e9 b0 ff ff ff       	jmp    1020 <puts@plt-0x10>

0000000000001070 <printf@plt>:
    1070:	ff 25 2a 2f 00 00    	jmp    *0x2f2a(%rip)        # 3fa0 <getc@plt+0x2ed0>
    1076:	68 04 00 00 00       	push   $0x4
    107b:	e9 a0 ff ff ff       	jmp    1020 <puts@plt-0x10>

0000000000001080 <read@plt>:
    1080:	ff 25 22 2f 00 00    	jmp    *0x2f22(%rip)        # 3fa8 <getc@plt+0x2ed8>
    1086:	68 05 00 00 00       	push   $0x5
    108b:	e9 90 ff ff ff       	jmp    1020 <puts@plt-0x10>

0000000000001090 <fgets@plt>:
    1090:	ff 25 1a 2f 00 00    	jmp    *0x2f1a(%rip)        # 3fb0 <getc@plt+0x2ee0>
    1096:	68 06 00 00 00       	push   $0x6
    109b:	e9 80 ff ff ff       	jmp    1020 <puts@plt-0x10>

00000000000010a0 <__isoc23_scanf@plt>:
    10a0:	ff 25 12 2f 00 00    	jmp    *0x2f12(%rip)        # 3fb8 <getc@plt+0x2ee8>
    10a6:	68 07 00 00 00       	push   $0x7
    10ab:	e9 70 ff ff ff       	jmp    1020 <puts@plt-0x10>

00000000000010b0 <fopen@plt>:
    10b0:	ff 25 0a 2f 00 00    	jmp    *0x2f0a(%rip)        # 3fc0 <getc@plt+0x2ef0>
    10b6:	68 08 00 00 00       	push   $0x8
    10bb:	e9 60 ff ff ff       	jmp    1020 <puts@plt-0x10>

00000000000010c0 <exit@plt>:
    10c0:	ff 25 02 2f 00 00    	jmp    *0x2f02(%rip)        # 3fc8 <getc@plt+0x2ef8>
    10c6:	68 09 00 00 00       	push   $0x9
    10cb:	e9 50 ff ff ff       	jmp    1020 <puts@plt-0x10>

00000000000010d0 <getc@plt>:
    10d0:	ff 25 fa 2e 00 00    	jmp    *0x2efa(%rip)        # 3fd0 <getc@plt+0x2f00>
    10d6:	68 0a 00 00 00       	push   $0xa
    10db:	e9 40 ff ff ff       	jmp    1020 <puts@plt-0x10>

Disassembly of section .text:

00000000000010e0 <.text>:
    10e0:	55                   	push   %rbp
    10e1:	53                   	push   %rbx
    10e2:	48 83 ec 68          	sub    $0x68,%rsp
    10e6:	48 8b 3d 33 2f 00 00 	mov    0x2f33(%rip),%rdi        # 4020 <stdout@GLIBC_2.2.5>
    10ed:	64 48 8b 34 25 28 00 	mov    %fs:0x28,%rsi
    10f4:	00 00 
    10f6:	48 89 74 24 58       	mov    %rsi,0x58(%rsp)
    10fb:	31 f6                	xor    %esi,%esi
    10fd:	e8 5e ff ff ff       	call   1060 <setbuf@plt>
    1102:	48 8b 3d 27 2f 00 00 	mov    0x2f27(%rip),%rdi        # 4030 <stdin@GLIBC_2.2.5>
    1109:	31 f6                	xor    %esi,%esi
    110b:	e8 50 ff ff ff       	call   1060 <setbuf@plt>
    1110:	48 8b 3d 29 2f 00 00 	mov    0x2f29(%rip),%rdi        # 4040 <stderr@GLIBC_2.2.5>
    1117:	31 f6                	xor    %esi,%esi
    1119:	e8 42 ff ff ff       	call   1060 <setbuf@plt>
    111e:	48 8d 3d 0b 10 00 00 	lea    0x100b(%rip),%rdi        # 2130 <getc@plt+0x1060>
    1125:	e8 06 ff ff ff       	call   1030 <puts@plt>
    112a:	48 8d 3d 27 10 00 00 	lea    0x1027(%rip),%rdi        # 2158 <getc@plt+0x1088>
    1131:	e8 fa fe ff ff       	call   1030 <puts@plt>
    1136:	66 2e 0f 1f 84 00 00 	cs nopw 0x0(%rax,%rax,1)
    113d:	00 00 00 
    1140:	48 8d 3d 99 0f 00 00 	lea    0xf99(%rip),%rdi        # 20e0 <getc@plt+0x1010>
    1147:	e8 e4 fe ff ff       	call   1030 <puts@plt>
    114c:	48 8d 3d ef 0e 00 00 	lea    0xeef(%rip),%rdi        # 2042 <getc@plt+0xf72>
    1153:	e8 d8 fe ff ff       	call   1030 <puts@plt>
    1158:	48 8d 3d b1 0f 00 00 	lea    0xfb1(%rip),%rdi        # 2110 <getc@plt+0x1040>
    115f:	e8 cc fe ff ff       	call   1030 <puts@plt>
    1164:	48 8d 3d ed 0e 00 00 	lea    0xeed(%rip),%rdi        # 2058 <getc@plt+0xf88>
    116b:	31 c0                	xor    %eax,%eax
    116d:	e8 fe fe ff ff       	call   1070 <printf@plt>
    1172:	31 c0                	xor    %eax,%eax
    1174:	48 8d 74 24 0c       	lea    0xc(%rsp),%rsi
    1179:	48 8d 3d 04 0f 00 00 	lea    0xf04(%rip),%rdi        # 2084 <getc@plt+0xfb4>
    1180:	e8 1b ff ff ff       	call   10a0 <__isoc23_scanf@plt>
    1185:	83 f8 01             	cmp    $0x1,%eax
    1188:	0f 85 89 00 00 00    	jne    1217 <getc@plt+0x147>
    118e:	48 8b 3d 9b 2e 00 00 	mov    0x2e9b(%rip),%rdi        # 4030 <stdin@GLIBC_2.2.5>
    1195:	e8 36 ff ff ff       	call   10d0 <getc@plt>
    119a:	8b 44 24 0c          	mov    0xc(%rsp),%eax
    119e:	83 f8 01             	cmp    $0x1,%eax
    11a1:	74 1d                	je     11c0 <getc@plt+0xf0>
    11a3:	83 f8 02             	cmp    $0x2,%eax
    11a6:	74 63                	je     120b <getc@plt+0x13b>
    11a8:	48 8d 3d f3 0e 00 00 	lea    0xef3(%rip),%rdi        # 20a2 <getc@plt+0xfd2>
    11af:	e8 7c fe ff ff       	call   1030 <puts@plt>
    11b4:	eb 8a                	jmp    1140 <getc@plt+0x70>
    11b6:	66 2e 0f 1f 84 00 00 	cs nopw 0x0(%rax,%rax,1)
    11bd:	00 00 00 
    11c0:	48 8d 6c 24 10       	lea    0x10(%rsp),%rbp
    11c5:	48 8d 3d 8f 0e 00 00 	lea    0xe8f(%rip),%rdi        # 205b <getc@plt+0xf8b>
    11cc:	31 c0                	xor    %eax,%eax
    11ce:	e8 9d fe ff ff       	call   1070 <printf@plt>
    11d3:	ba 80 00 00 00       	mov    $0x80,%edx
    11d8:	48 89 ee             	mov    %rbp,%rsi
    11db:	31 ff                	xor    %edi,%edi
    11dd:	e8 9e fe ff ff       	call   1080 <read@plt>
    11e2:	48 8d 3d 82 0e 00 00 	lea    0xe82(%rip),%rdi        # 206b <getc@plt+0xf9b>
    11e9:	31 c0                	xor    %eax,%eax
    11eb:	e8 80 fe ff ff       	call   1070 <printf@plt>
    11f0:	48 89 ef             	mov    %rbp,%rdi
    11f3:	31 c0                	xor    %eax,%eax
    11f5:	e8 76 fe ff ff       	call   1070 <printf@plt>
    11fa:	48 8d 3d 69 0e 00 00 	lea    0xe69(%rip),%rdi        # 206a <getc@plt+0xf9a>
    1201:	e8 2a fe ff ff       	call   1030 <puts@plt>
    1206:	e9 35 ff ff ff       	jmp    1140 <getc@plt+0x70>
    120b:	48 8d 3d 75 0e 00 00 	lea    0xe75(%rip),%rdi        # 2087 <getc@plt+0xfb7>
    1212:	e8 19 fe ff ff       	call   1030 <puts@plt>
    1217:	31 ff                	xor    %edi,%edi
    1219:	e8 a2 fe ff ff       	call   10c0 <exit@plt>
    121e:	66 90                	xchg   %ax,%ax
    1220:	f3 0f 1e fa          	endbr64
    1224:	31 ed                	xor    %ebp,%ebp
    1226:	49 89 d1             	mov    %rdx,%r9
    1229:	5e                   	pop    %rsi
    122a:	48 89 e2             	mov    %rsp,%rdx
    122d:	48 83 e4 f0          	and    $0xfffffffffffffff0,%rsp
    1231:	50                   	push   %rax
    1232:	54                   	push   %rsp
    1233:	45 31 c0             	xor    %r8d,%r8d
    1236:	31 c9                	xor    %ecx,%ecx
    1238:	48 8d 3d a1 fe ff ff 	lea    -0x15f(%rip),%rdi        # 10e0 <getc@plt+0x10>
    123f:	ff 15 93 2d 00 00    	call   *0x2d93(%rip)        # 3fd8 <getc@plt+0x2f08>
    1245:	f4                   	hlt
    1246:	66 2e 0f 1f 84 00 00 	cs nopw 0x0(%rax,%rax,1)
    124d:	00 00 00 
    1250:	48 8d 3d b9 2d 00 00 	lea    0x2db9(%rip),%rdi        # 4010 <getc@plt+0x2f40>
    1257:	48 8d 05 b2 2d 00 00 	lea    0x2db2(%rip),%rax        # 4010 <getc@plt+0x2f40>
    125e:	48 39 f8             	cmp    %rdi,%rax
    1261:	74 15                	je     1278 <getc@plt+0x1a8>
    1263:	48 8b 05 76 2d 00 00 	mov    0x2d76(%rip),%rax        # 3fe0 <getc@plt+0x2f10>
    126a:	48 85 c0             	test   %rax,%rax
    126d:	74 09                	je     1278 <getc@plt+0x1a8>
    126f:	ff e0                	jmp    *%rax
    1271:	0f 1f 80 00 00 00 00 	nopl   0x0(%rax)
    1278:	c3                   	ret
    1279:	0f 1f 80 00 00 00 00 	nopl   0x0(%rax)
    1280:	48 8d 3d 89 2d 00 00 	lea    0x2d89(%rip),%rdi        # 4010 <getc@plt+0x2f40>
    1287:	48 8d 35 82 2d 00 00 	lea    0x2d82(%rip),%rsi        # 4010 <getc@plt+0x2f40>
    128e:	48 29 fe             	sub    %rdi,%rsi
    1291:	48 89 f0             	mov    %rsi,%rax
    1294:	48 c1 ee 3f          	shr    $0x3f,%rsi
    1298:	48 c1 f8 03          	sar    $0x3,%rax
    129c:	48 01 c6             	add    %rax,%rsi
    129f:	48 d1 fe             	sar    $1,%rsi
    12a2:	74 14                	je     12b8 <getc@plt+0x1e8>
    12a4:	48 8b 05 45 2d 00 00 	mov    0x2d45(%rip),%rax        # 3ff0 <getc@plt+0x2f20>
    12ab:	48 85 c0             	test   %rax,%rax
    12ae:	74 08                	je     12b8 <getc@plt+0x1e8>
    12b0:	ff e0                	jmp    *%rax
    12b2:	66 0f 1f 44 00 00    	nopw   0x0(%rax,%rax,1)
    12b8:	c3                   	ret
    12b9:	0f 1f 80 00 00 00 00 	nopl   0x0(%rax)
    12c0:	f3 0f 1e fa          	endbr64
    12c4:	80 3d 7d 2d 00 00 00 	cmpb   $0x0,0x2d7d(%rip)        # 4048 <stderr@GLIBC_2.2.5+0x8>
    12cb:	75 33                	jne    1300 <getc@plt+0x230>
    12cd:	55                   	push   %rbp
    12ce:	48 83 3d 22 2d 00 00 	cmpq   $0x0,0x2d22(%rip)        # 3ff8 <getc@plt+0x2f28>
    12d5:	00 
    12d6:	48 89 e5             	mov    %rsp,%rbp
    12d9:	74 0d                	je     12e8 <getc@plt+0x218>
    12db:	48 8b 3d 26 2d 00 00 	mov    0x2d26(%rip),%rdi        # 4008 <getc@plt+0x2f38>
    12e2:	ff 15 10 2d 00 00    	call   *0x2d10(%rip)        # 3ff8 <getc@plt+0x2f28>
    12e8:	e8 63 ff ff ff       	call   1250 <getc@plt+0x180>
    12ed:	c6 05 54 2d 00 00 01 	movb   $0x1,0x2d54(%rip)        # 4048 <stderr@GLIBC_2.2.5+0x8>
    12f4:	5d                   	pop    %rbp
    12f5:	c3                   	ret
    12f6:	66 2e 0f 1f 84 00 00 	cs nopw 0x0(%rax,%rax,1)
    12fd:	00 00 00 
    1300:	c3                   	ret
    1301:	0f 1f 40 00          	nopl   0x0(%rax)
    1305:	66 66 2e 0f 1f 84 00 	data16 cs nopw 0x0(%rax,%rax,1)
    130c:	00 00 00 00 
    1310:	f3 0f 1e fa          	endbr64
    1314:	e9 67 ff ff ff       	jmp    1280 <getc@plt+0x1b0>
    1319:	0f 1f 80 00 00 00 00 	nopl   0x0(%rax)
    1320:	55                   	push   %rbp
    1321:	48 8d 3d dc 0c 00 00 	lea    0xcdc(%rip),%rdi        # 2004 <getc@plt+0xf34>
    1328:	53                   	push   %rbx
    1329:	48 81 ec 98 00 00 00 	sub    $0x98,%rsp
    1330:	64 48 8b 34 25 28 00 	mov    %fs:0x28,%rsi
    1337:	00 00 
    1339:	48 89 b4 24 88 00 00 	mov    %rsi,0x88(%rsp)
    1340:	00 
    1341:	48 8d 35 e8 0c 00 00 	lea    0xce8(%rip),%rsi        # 2030 <getc@plt+0xf60>
    1348:	e8 63 fd ff ff       	call   10b0 <fopen@plt>
    134d:	48 85 c0             	test   %rax,%rax
    1350:	74 36                	je     1388 <getc@plt+0x2b8>
    1352:	48 89 c2             	mov    %rax,%rdx
    1355:	be 80 00 00 00       	mov    $0x80,%esi
    135a:	48 89 e7             	mov    %rsp,%rdi
    135d:	48 89 c3             	mov    %rax,%rbx
    1360:	e8 2b fd ff ff       	call   1090 <fgets@plt>
    1365:	48 8d 3d a1 0c 00 00 	lea    0xca1(%rip),%rdi        # 200d <getc@plt+0xf3d>
    136c:	e8 bf fc ff ff       	call   1030 <puts@plt>
    1371:	48 89 e7             	mov    %rsp,%rdi
    1374:	e8 b7 fc ff ff       	call   1030 <puts@plt>
    1379:	48 89 df             	mov    %rbx,%rdi
    137c:	e8 bf fc ff ff       	call   1040 <fclose@plt>
    1381:	31 ff                	xor    %edi,%edi
    1383:	e8 38 fd ff ff       	call   10c0 <exit@plt>
    1388:	48 8d 3d 29 0d 00 00 	lea    0xd29(%rip),%rdi        # 20b8 <getc@plt+0xfe8>
    138f:	e8 9c fc ff ff       	call   1030 <puts@plt>
    1394:	bf 01 00 00 00       	mov    $0x1,%edi
    1399:	e8 22 fd ff ff       	call   10c0 <exit@plt>
    139e:	66 90                	xchg   %ax,%ax
    13a0:	48 83 ec 18          	sub    $0x18,%rsp
    13a4:	64 48 8b 3c 25 28 00 	mov    %fs:0x28,%rdi
    13ab:	00 00 
    13ad:	48 89 7c 24 08       	mov    %rdi,0x8(%rsp)
    13b2:	48 8d 3d 6e 0c 00 00 	lea    0xc6e(%rip),%rdi        # 2027 <getc@plt+0xf57>
    13b9:	e8 72 fc ff ff       	call   1030 <puts@plt>
    13be:	31 ff                	xor    %edi,%edi
    13c0:	e8 fb fc ff ff       	call   10c0 <exit@plt>
    13c5:	66 66 2e 0f 1f 84 00 	data16 cs nopw 0x0(%rax,%rax,1)
    13cc:	00 00 00 00 
    13d0:	48 83 ec 38          	sub    $0x38,%rsp
    13d4:	31 ff                	xor    %edi,%edi
    13d6:	ba 20 00 00 00       	mov    $0x20,%edx
    13db:	64 48 8b 34 25 28 00 	mov    %fs:0x28,%rsi
    13e2:	00 00 
    13e4:	48 89 74 24 28       	mov    %rsi,0x28(%rsp)
    13e9:	48 89 e6             	mov    %rsp,%rsi
    13ec:	e8 8f fc ff ff       	call   1080 <read@plt>
    13f1:	81 3c 24 6e 6f 70 65 	cmpl   $0x65706f6e,(%rsp)
    13f8:	74 16                	je     1410 <getc@plt+0x340>
    13fa:	48 8b 44 24 28       	mov    0x28(%rsp),%rax
    13ff:	64 48 2b 04 25 28 00 	sub    %fs:0x28,%rax
    1406:	00 00 
    1408:	75 1b                	jne    1425 <getc@plt+0x355>
    140a:	48 83 c4 38          	add    $0x38,%rsp
    140e:	c3                   	ret
    140f:	90                   	nop
    1410:	80 7c 24 04 00       	cmpb   $0x0,0x4(%rsp)
    1415:	75 e3                	jne    13fa <getc@plt+0x32a>
    1417:	48 8d 3d 19 0c 00 00 	lea    0xc19(%rip),%rdi        # 2037 <getc@plt+0xf67>
    141e:	e8 0d fc ff ff       	call   1030 <puts@plt>
    1423:	eb d5                	jmp    13fa <getc@plt+0x32a>
    1425:	e8 26 fc ff ff       	call   1050 <__stack_chk_fail@plt>
    142a:	66 0f 1f 44 00 00    	nopw   0x0(%rax,%rax,1)
    1430:	48 83 ec 18          	sub    $0x18,%rsp
    1434:	64 48 8b 3c 25 28 00 	mov    %fs:0x28,%rdi
    143b:	00 00 
    143d:	48 89 7c 24 08       	mov    %rdi,0x8(%rsp)
    1442:	48 8d 3d 97 0c 00 00 	lea    0xc97(%rip),%rdi        # 20e0 <getc@plt+0x1010>
    1449:	e8 e2 fb ff ff       	call   1030 <puts@plt>
    144e:	48 8d 3d ed 0b 00 00 	lea    0xbed(%rip),%rdi        # 2042 <getc@plt+0xf72>
    1455:	e8 d6 fb ff ff       	call   1030 <puts@plt>
    145a:	48 8d 3d af 0c 00 00 	lea    0xcaf(%rip),%rdi        # 2110 <getc@plt+0x1040>
    1461:	e8 ca fb ff ff       	call   1030 <puts@plt>
    1466:	48 8b 44 24 08       	mov    0x8(%rsp),%rax
    146b:	64 48 2b 04 25 28 00 	sub    %fs:0x28,%rax
    1472:	00 00 
    1474:	75 12                	jne    1488 <getc@plt+0x3b8>
    1476:	48 8d 3d db 0b 00 00 	lea    0xbdb(%rip),%rdi        # 2058 <getc@plt+0xf88>
    147d:	31 c0                	xor    %eax,%eax
    147f:	48 83 c4 18          	add    $0x18,%rsp
    1483:	e9 e8 fb ff ff       	jmp    1070 <printf@plt>
    1488:	e8 c3 fb ff ff       	call   1050 <__stack_chk_fail@plt>
    148d:	0f 1f 00             	nopl   (%rax)
    1490:	53                   	push   %rbx
    1491:	48 8d 3d c3 0b 00 00 	lea    0xbc3(%rip),%rdi        # 205b <getc@plt+0xf8b>
    1498:	48 83 ec 50          	sub    $0x50,%rsp
    149c:	64 48 8b 04 25 28 00 	mov    %fs:0x28,%rax
    14a3:	00 00 
    14a5:	48 89 44 24 48       	mov    %rax,0x48(%rsp)
    14aa:	31 c0                	xor    %eax,%eax
    14ac:	e8 bf fb ff ff       	call   1070 <printf@plt>
    14b1:	ba 80 00 00 00       	mov    $0x80,%edx
    14b6:	48 89 e6             	mov    %rsp,%rsi
    14b9:	31 ff                	xor    %edi,%edi
    14bb:	e8 c0 fb ff ff       	call   1080 <read@plt>
    14c0:	48 8d 3d a4 0b 00 00 	lea    0xba4(%rip),%rdi        # 206b <getc@plt+0xf9b>
    14c7:	31 c0                	xor    %eax,%eax
    14c9:	e8 a2 fb ff ff       	call   1070 <printf@plt>
    14ce:	48 89 e7             	mov    %rsp,%rdi
    14d1:	31 c0                	xor    %eax,%eax
    14d3:	e8 98 fb ff ff       	call   1070 <printf@plt>
    14d8:	48 8d 3d 8b 0b 00 00 	lea    0xb8b(%rip),%rdi        # 206a <getc@plt+0xf9a>
    14df:	e8 4c fb ff ff       	call   1030 <puts@plt>
    14e4:	48 8b 44 24 48       	mov    0x48(%rsp),%rax
    14e9:	64 48 2b 04 25 28 00 	sub    %fs:0x28,%rax
    14f0:	00 00 
    14f2:	75 06                	jne    14fa <getc@plt+0x42a>
    14f4:	48 83 c4 50          	add    $0x50,%rsp
    14f8:	5b                   	pop    %rbx
    14f9:	c3                   	ret
    14fa:	e8 51 fb ff ff       	call   1050 <__stack_chk_fail@plt>

Disassembly of section .fini:

0000000000001500 <.fini>:
    1500:	f3 0f 1e fa          	endbr64
    1504:	48 83 ec 08          	sub    $0x8,%rsp
    1508:	48 83 c4 08          	add    $0x8,%rsp
    150c:	c3                   	ret
